; Function Attrs: mustprogress uwtable
define noundef signext i8 @_ZNK6icu_7513StringMatcher17matchesIndexValueEh(ptr noundef nonnull align 8 dereferenceable(108) %this, i8 noundef zeroext %v) unnamed_addr #1 align 2 {
entry:
  %fUnion.i.i = getelementptr inbounds i8, ptr %this, i64 32
  %0 = load i16, ptr %fUnion.i.i, align 8
  %cmp.i.i = icmp slt i16 %0, 0
  %1 = ashr i16 %0, 5
  %shr.i.i = sext i16 %1 to i32
  %fLength.i = getelementptr inbounds i8, ptr %this, i64 36
  %2 = load i32, ptr %fLength.i, align 4
  %cond.i = select i1 %cmp.i.i, i32 %2, i32 %shr.i.i
  %cmp = icmp eq i32 %cond.i, 0
  br i1 %cmp, label %return, label %if.end

if.end:                                           ; preds = %entry
  %pattern = getelementptr inbounds i8, ptr %this, i64 24
  %call3 = tail call noundef i32 @_ZNK6icu_7513UnicodeString8char32AtEi(ptr noundef nonnull align 8 dereferenceable(64) %pattern, i32 noundef 0)
  %data = getelementptr inbounds i8, ptr %this, i64 88
  %3 = load ptr, ptr %data, align 8
  %call4 = tail call noundef ptr @_ZNK6icu_7523TransliterationRuleData13lookupMatcherEi(ptr noundef nonnull align 8 dereferenceable(1168) %3, i32 noundef %call3)
  %cmp5 = icmp eq ptr %call4, null
  br i1 %cmp5, label %cond.true, label %cond.false

cond.true:                                        ; preds = %if.end
  %4 = trunc i32 %call3 to i8
  %cmp6 = icmp eq i8 %4, %v
  %5 = zext i1 %cmp6 to i8
  br label %return

cond.false:                                       ; preds = %if.end
  %vtable = load ptr, ptr %call4, align 8
  %vfn = getelementptr inbounds i8, ptr %vtable, i64 32
  %6 = load ptr, ptr %vfn, align 8
  %call8 = tail call noundef signext i8 %6(ptr noundef nonnull align 8 dereferenceable(8) %call4, i8 noundef zeroext %v)
  br label %return

return:                                           ; preds = %cond.true, %cond.false, %entry
  %retval.0 = phi i8 [ 1, %entry ], [ %5, %cond.true ], [ %call8, %cond.false ]
  ret i8 %retval.0
}